(dp0
S'METTS MARK'
p1
(dp2
S'salary'
p3
F365788.0
sS'to_messages'
p4
F807.0
sS'total_payments'
p5
F1061827.0
sS'bonus'
p6
F600000.0
sS'sent_to_poi_pct'
p7
F0.034482758620689655
sS'received_from_poi_pct'
p8
F0.04708798017348203
sS'total_stock_value'
p9
F585062.0
sS'shared_receipt_with_poi'
p10
F702.0
sS'exercised_stock_options'
p11
Fnan
sS'from_messages'
p12
F29.0
sS'from_this_person_to_poi'
p13
F1.0
sS'poi'
p14
I00
sS'long_term_incentive'
p15
Fnan
sS'expenses'
p16
F94299.0
sS'restricted_stock'
p17
F585062.0
sS'from_poi_to_this_person'
p18
F38.0
ssS'BAXTER JOHN C'
p19
(dp20
g3
F267102.0
sg4
Fnan
sg5
F5634343.0
sg6
F1200000.0
sg7
Fnan
sg8
Fnan
sg9
F10623258.0
sg10
Fnan
sg11
F6680544.0
sg12
Fnan
sg13
Fnan
sg14
I00
sg15
F1586055.0
sg16
F11200.0
sg17
F3942714.0
sg18
Fnan
ssS'ELLIOTT STEVEN'
p21
(dp22
g3
F170941.0
sg4
Fnan
sg5
F211725.0
sg6
F350000.0
sg7
Fnan
sg8
Fnan
sg9
F6678735.0
sg10
Fnan
sg11
F4890344.0
sg12
Fnan
sg13
Fnan
sg14
I00
sg15
Fnan
sg16
F78552.0
sg17
F1788391.0
sg18
Fnan
ssS'CORDES WILLIAM R'
p23
(dp24
g3
Fnan
sg4
F764.0
sg5
Fnan
sg6
Fnan
sg7
F0.0
sg8
F0.013089005235602094
sg9
F1038185.0
sg10
F58.0
sg11
F651850.0
sg12
F12.0
sg13
F0.0
sg14
I00
sg15
Fnan
sg16
Fnan
sg17
F386335.0
sg18
F10.0
ssS'HANNON KEVIN P'
p25
(dp26
g3
F243293.0
sg4
F1045.0
sg5
F288682.0
sg6
F1500000.0
sg7
F0.65625
sg8
F0.03062200956937799
sg9
F6391065.0
sg10
F1035.0
sg11
F5538001.0
sg12
F32.0
sg13
F21.0
sg14
I01
sg15
F1617011.0
sg16
F34039.0
sg17
F853064.0
sg18
F32.0
ssS'MORDAUNT KRISTINA M'
p27
(dp28
g3
F267093.0
sg4
Fnan
sg5
F628522.0
sg6
F325000.0
sg7
Fnan
sg8
Fnan
sg9
F208510.0
sg10
Fnan
sg11
Fnan
sg12
Fnan
sg13
Fnan
sg14
I00
sg15
Fnan
sg16
F35018.0
sg17
F208510.0
sg18
Fnan
ssS'MEYER ROCKFORD G'
p29
(dp30
g3
Fnan
sg4
F232.0
sg5
F1848227.0
sg6
Fnan
sg7
F0.0
sg8
F0.0
sg9
F955873.0
sg10
F22.0
sg11
F493489.0
sg12
F28.0
sg13
F0.0
sg14
I00
sg15
Fnan
sg16
Fnan
sg17
F462384.0
sg18
F0.0
ssS'MCMAHON JEFFREY'
p31
(dp32
g3
F370448.0
sg4
F2355.0
sg5
F4099771.0
sg6
F2600000.0
sg7
F0.5416666666666666
sg8
F0.024628450106157114
sg9
F1662855.0
sg10
F2228.0
sg11
F1104054.0
sg12
F48.0
sg13
F26.0
sg14
I00
sg15
F694862.0
sg16
F137108.0
sg17
F558801.0
sg18
F58.0
ssS'HORTON STANLEY C'
p33
(dp34
g3
Fnan
sg4
F2350.0
sg5
F3131860.0
sg6
Fnan
sg7
F0.013979496738117428
sg8
F0.01872340425531915
sg9
F7256648.0
sg10
F1074.0
sg11
F5210569.0
sg12
F1073.0
sg13
F15.0
sg14
I00
sg15
Fnan
sg16
Fnan
sg17
F2046079.0
sg18
F44.0
ssS'PIPER GREGORY F'
p35
(dp36
g3
F197091.0
sg4
F1238.0
sg5
F1737629.0
sg6
F400000.0
sg7
F0.21621621621621623
sg8
F0.049273021001615507
sg9
F880290.0
sg10
F742.0
sg11
F880290.0
sg12
F222.0
sg13
F48.0
sg14
I00
sg15
Fnan
sg16
F43057.0
sg17
F409554.0
sg18
F61.0
ssS'HUMPHREY GENE E'
p37
(dp38
g3
F130724.0
sg4
F128.0
sg5
F3100224.0
sg6
Fnan
sg7
F1.0
sg8
F0.078125
sg9
F2282768.0
sg10
F119.0
sg11
F2282768.0
sg12
F17.0
sg13
F17.0
sg14
I00
sg15
Fnan
sg16
F4994.0
sg17
Fnan
sg18
F10.0
ssS'UMANOFF ADAM S'
p39
(dp40
g3
F288589.0
sg4
F111.0
sg5
F1130461.0
sg6
F788750.0
sg7
F0.0
sg8
F0.10810810810810811
sg9
Fnan
sg10
F41.0
sg11
Fnan
sg12
F18.0
sg13
F0.0
sg14
I00
sg15
Fnan
sg16
F53122.0
sg17
Fnan
sg18
F12.0
ssS'BLACHMAN JEREMY M'
p41
(dp42
g3
F248546.0
sg4
F2475.0
sg5
F2014835.0
sg6
F850000.0
sg7
F0.14285714285714285
sg8
F0.010101010101010102
sg9
F954354.0
sg10
F2326.0
sg11
F765313.0
sg12
F14.0
sg13
F2.0
sg14
I00
sg15
F831809.0
sg16
F84208.0
sg17
F189041.0
sg18
F25.0
ssS'SUNDE MARTIN'
p43
(dp44
g3
F257486.0
sg4
F2647.0
sg5
F1545059.0
sg6
F700000.0
sg7
F0.34210526315789475
sg8
F0.013978088401964487
sg9
F698920.0
sg10
F2565.0
sg11
Fnan
sg12
F38.0
sg13
F13.0
sg14
I00
sg15
F476451.0
sg16
Fnan
sg17
F698920.0
sg18
F37.0
ssS'GIBBS DANA R'
p45
(dp46
g3
Fnan
sg4
F169.0
sg5
F966522.0
sg6
Fnan
sg7
F0.0
sg8
F0.0
sg9
F2218275.0
sg10
F23.0
sg11
F2218275.0
sg12
F12.0
sg13
F0.0
sg14
I00
sg15
F461912.0
sg16
Fnan
sg17
Fnan
sg18
F0.0
ssS'LOWRY CHARLES P'
p47
(dp48
g3
Fnan
sg4
Fnan
sg5
Fnan
sg6
Fnan
sg7
Fnan
sg8
Fnan
sg9
F372205.0
sg10
Fnan
sg11
F372205.0
sg12
Fnan
sg13
Fnan
sg14
I00
sg15
Fnan
sg16
Fnan
sg17
F153686.0
sg18
Fnan
ssS'COLWELL WESLEY'
p49
(dp50
g3
F288542.0
sg4
F1758.0
sg5
F1490344.0
sg6
F1200000.0
sg7
F0.275
sg8
F0.13651877133105803
sg9
F698242.0
sg10
F1132.0
sg11
Fnan
sg12
F40.0
sg13
F11.0
sg14
I01
sg15
Fnan
sg16
F16514.0
sg17
F698242.0
sg18
F240.0
ssS'MULLER MARK S'
p51
(dp52
g3
F251654.0
sg4
F136.0
sg5
F3202070.0
sg6
F1100000.0
sg7
F0.0
sg8
F0.08823529411764706
sg9
F1416848.0
sg10
F114.0
sg11
F1056320.0
sg12
F16.0
sg13
F0.0
sg14
I00
sg15
F1725545.0
sg16
Fnan
sg17
F360528.0
sg18
F12.0
ssS'JACKSON CHARLENE R'
p53
(dp54
g3
F288558.0
sg4
F258.0
sg5
F551174.0
sg6
F250000.0
sg7
F0.3392857142857143
sg8
F0.09689922480620156
sg9
F725735.0
sg10
F117.0
sg11
F185063.0
sg12
F56.0
sg13
F19.0
sg14
I00
sg15
Fnan
sg16
F10181.0
sg17
F540672.0
sg18
F25.0
ssS'WESTFAHL RICHARD K'
p55
(dp56
g3
F63744.0
sg4
Fnan
sg5
F762135.0
sg6
Fnan
sg7
Fnan
sg8
Fnan
sg9
F384930.0
sg10
Fnan
sg11
Fnan
sg12
Fnan
sg13
Fnan
sg14
I00
sg15
F256191.0
sg16
F51870.0
sg17
F384930.0
sg18
Fnan
ssS'WALTERS GARETH W'
p57
(dp58
g3
Fnan
sg4
Fnan
sg5
F87410.0
sg6
Fnan
sg7
Fnan
sg8
Fnan
sg9
F1030329.0
sg10
Fnan
sg11
F1030329.0
sg12
Fnan
sg13
Fnan
sg14
I00
sg15
Fnan
sg16
F33785.0
sg17
Fnan
sg18
Fnan
ssS'WALLS JR ROBERT H'
p59
(dp60
g3
F357091.0
sg4
F671.0
sg5
F1798780.0
sg6
F850000.0
sg7
F0.0
sg8
F0.02533532041728763
sg9
F5898997.0
sg10
F215.0
sg11
F4346544.0
sg12
F146.0
sg13
F0.0
sg14
I00
sg15
F540751.0
sg16
F50936.0
sg17
F1552453.0
sg18
F17.0
ssS'KITCHEN LOUISE'
p61
(dp62
g3
F271442.0
sg4
F8305.0
sg5
F3471141.0
sg6
F3100000.0
sg7
F0.11226851851851852
sg8
F0.030222757375075255
sg9
F547143.0
sg10
F3669.0
sg11
F81042.0
sg12
F1728.0
sg13
F194.0
sg14
I00
sg15
Fnan
sg16
F5774.0
sg17
F466101.0
sg18
F251.0
ssS'CHAN RONNIE'
p63
(dp64
g3
Fnan
sg4
Fnan
sg5
Fnan
sg6
Fnan
sg7
Fnan
sg8
Fnan
sg9
Fnan
sg10
Fnan
sg11
Fnan
sg12
Fnan
sg13
Fnan
sg14
I00
sg15
Fnan
sg16
Fnan
sg17
F32460.0
sg18
Fnan
ssS'BELFER ROBERT'
p65
(dp66
g3
Fnan
sg4
Fnan
sg5
F102500.0
sg6
Fnan
sg7
Fnan
sg8
Fnan
sg9
F-44093.0
sg10
Fnan
sg11
F3285.0
sg12
Fnan
sg13
Fnan
sg14
I00
sg15
Fnan
sg16
Fnan
sg17
Fnan
sg18
Fnan
ssS'SHANKMAN JEFFREY A'
p67
(dp68
g3
F304110.0
sg4
F3221.0
sg5
F3038702.0
sg6
F2000000.0
sg7
F0.030958597538232
sg8
F0.029183483390251473
sg9
F2072035.0
sg10
F1730.0
sg11
F1441898.0
sg12
F2681.0
sg13
F83.0
sg14
I00
sg15
F554422.0
sg16
F178979.0
sg17
F630137.0
sg18
F94.0
ssS'BERGSIEKER RICHARD P'
p69
(dp70
g3
F187922.0
sg4
F383.0
sg5
F618850.0
sg6
F250000.0
sg7
F0.0
sg8
F0.010443864229765013
sg9
F659249.0
sg10
F233.0
sg11
Fnan
sg12
F59.0
sg13
F0.0
sg14
I00
sg15
F180250.0
sg16
F59175.0
sg17
F659249.0
sg18
F4.0
ssS'URQUHART JOHN A'
p71
(dp72
g3
Fnan
sg4
Fnan
sg5
F228656.0
sg6
Fnan
sg7
Fnan
sg8
Fnan
sg9
Fnan
sg10
Fnan
sg11
Fnan
sg12
Fnan
sg13
Fnan
sg14
I00
sg15
Fnan
sg16
F228656.0
sg17
Fnan
sg18
Fnan
ssS'BIBI PHILIPPE A'
p73
(dp74
g3
F213625.0
sg4
F1607.0
sg5
F2047593.0
sg6
F1000000.0
sg7
F0.2
sg8
F0.01431238332296204
sg9
F1843816.0
sg10
F1336.0
sg11
F1465734.0
sg12
F40.0
sg13
F8.0
sg14
I00
sg15
F369721.0
sg16
F38559.0
sg17
F378082.0
sg18
F23.0
ssS'PIRO JIM'
p75
(dp76
g3
Fnan
sg4
F58.0
sg5
Fnan
sg6
Fnan
sg7
F0.0625
sg8
F0.0
sg9
F47304.0
sg10
F3.0
sg11
Fnan
sg12
F16.0
sg13
F1.0
sg14
I00
sg15
Fnan
sg16
Fnan
sg17
F47304.0
sg18
F0.0
ssS'RIEKER PAULA H'
p77
(dp78
g3
F249201.0
sg4
F1328.0
sg5
F1099100.0
sg6
F700000.0
sg7
F0.5853658536585366
sg8
F0.02635542168674699
sg9
F1918887.0
sg10
F1258.0
sg11
F1635238.0
sg12
F82.0
sg13
F48.0
sg14
I01
sg15
Fnan
sg16
F33271.0
sg17
F283649.0
sg18
F35.0
ssS'BECK SALLY W'
p79
(dp80
g3
F231330.0
sg4
F7315.0
sg5
F969068.0
sg6
F700000.0
sg7
F0.08887865530739121
sg8
F0.01968557758031442
sg9
F126027.0
sg10
F2639.0
sg11
Fnan
sg12
F4343.0
sg13
F386.0
sg14
I00
sg15
Fnan
sg16
F37172.0
sg17
F126027.0
sg18
F144.0
ssS'HAUG DAVID L'
p81
(dp82
g3
Fnan
sg4
F573.0
sg5
F475.0
sg6
Fnan
sg7
F0.3684210526315789
sg8
F0.006980802792321117
sg9
F2217299.0
sg10
F471.0
sg11
Fnan
sg12
F19.0
sg13
F7.0
sg14
I00
sg15
Fnan
sg16
F475.0
sg17
F2217299.0
sg18
F4.0
ssS'ECHOLS JOHN B'
p83
(dp84
g3
F182245.0
sg4
Fnan
sg5
F2692324.0
sg6
F200000.0
sg7
Fnan
sg8
Fnan
sg9
F1008941.0
sg10
Fnan
sg11
F601438.0
sg12
Fnan
sg13
Fnan
sg14
I00
sg15
F2234774.0
sg16
F21530.0
sg17
F407503.0
sg18
Fnan
ssS'MENDELSOHN JOHN'
p85
(dp86
g3
Fnan
sg4
Fnan
sg5
F148.0
sg6
Fnan
sg7
Fnan
sg8
Fnan
sg9
Fnan
sg10
Fnan
sg11
Fnan
sg12
Fnan
sg13
Fnan
sg14
I00
sg15
Fnan
sg16
F148.0
sg17
Fnan
sg18
Fnan
ssS'HICKERSON GARY J'
p87
(dp88
g3
F211788.0
sg4
F1320.0
sg5
F2081796.0
sg6
F1700000.0
sg7
F0.037037037037037035
sg8
F0.030303030303030304
sg9
F441096.0
sg10
F900.0
sg11
Fnan
sg12
F27.0
sg13
F1.0
sg14
I00
sg15
F69223.0
sg16
F98849.0
sg17
F441096.0
sg18
F40.0
ssS'CLINE KENNETH W'
p89
(dp90
g3
Fnan
sg4
Fnan
sg5
Fnan
sg6
Fnan
sg7
Fnan
sg8
Fnan
sg9
F189518.0
sg10
Fnan
sg11
Fnan
sg12
Fnan
sg13
Fnan
sg14
I00
sg15
Fnan
sg16
Fnan
sg17
F662086.0
sg18
Fnan
ssS'LEWIS RICHARD'
p91
(dp92
g3
Fnan
sg4
F952.0
sg5
Fnan
sg6
Fnan
sg7
F0.0
sg8
F0.01050420168067227
sg9
F850477.0
sg10
F739.0
sg11
F850477.0
sg12
F26.0
sg13
F0.0
sg14
I00
sg15
Fnan
sg16
Fnan
sg17
Fnan
sg18
F10.0
ssS'HAYES ROBERT E'
p93
(dp94
g3
Fnan
sg4
F504.0
sg5
F7961.0
sg6
Fnan
sg7
F0.0
sg8
F0.031746031746031744
sg9
F151418.0
sg10
F50.0
sg11
Fnan
sg12
F12.0
sg13
F0.0
sg14
I00
sg15
Fnan
sg16
Fnan
sg17
F151418.0
sg18
F16.0
ssS'KOPPER MICHAEL J'
p95
(dp96
g3
F224305.0
sg4
Fnan
sg5
F2652612.0
sg6
F800000.0
sg7
Fnan
sg8
Fnan
sg9
F985032.0
sg10
Fnan
sg11
Fnan
sg12
Fnan
sg13
Fnan
sg14
I01
sg15
F602671.0
sg16
F118134.0
sg17
F985032.0
sg18
Fnan
ssS'LEFF DANIEL P'
p97
(dp98
g3
F273746.0
sg4
F2822.0
sg5
F2664228.0
sg6
F1000000.0
sg7
F0.2222222222222222
sg8
F0.02374202693125443
sg9
F360528.0
sg10
F2672.0
sg11
Fnan
sg12
F63.0
sg13
F14.0
sg14
I00
sg15
F1387399.0
sg16
Fnan
sg17
F360528.0
sg18
F67.0
ssS'LAVORATO JOHN J'
p99
(dp100
g3
F339288.0
sg4
F7259.0
sg5
F10425757.0
sg6
F8000000.0
sg7
F0.15899419729206962
sg8
F0.07273729163796666
sg9
F5167144.0
sg10
F3962.0
sg11
F4158995.0
sg12
F2585.0
sg13
F411.0
sg14
I00
sg15
F2035380.0
sg16
F49537.0
sg17
F1008149.0
sg18
F528.0
ssS'BERBERIAN DAVID'
p101
(dp102
g3
F216582.0
sg4
Fnan
sg5
F228474.0
sg6
Fnan
sg7
Fnan
sg8
Fnan
sg9
F2493616.0
sg10
Fnan
sg11
F1624396.0
sg12
Fnan
sg13
Fnan
sg14
I00
sg15
Fnan
sg16
F11892.0
sg17
F869220.0
sg18
Fnan
ssS'DETMERING TIMOTHY J'
p103
(dp104
g3
F210500.0
sg4
Fnan
sg5
F1204583.0
sg6
F425000.0
sg7
Fnan
sg8
Fnan
sg9
F2027865.0
sg10
Fnan
sg11
F2027865.0
sg12
Fnan
sg13
Fnan
sg14
I00
sg15
F415657.0
sg16
F52255.0
sg17
F315068.0
sg18
Fnan
ssS'WAKEHAM JOHN'
p105
(dp106
g3
Fnan
sg4
Fnan
sg5
F213071.0
sg6
Fnan
sg7
Fnan
sg8
Fnan
sg9
Fnan
sg10
Fnan
sg11
Fnan
sg12
Fnan
sg13
Fnan
sg14
I00
sg15
Fnan
sg16
F103773.0
sg17
Fnan
sg18
Fnan
ssS'POWERS WILLIAM'
p107
(dp108
g3
Fnan
sg4
F653.0
sg5
Fnan
sg6
Fnan
sg7
F0.0
sg8
F0.0
sg9
Fnan
sg10
F12.0
sg11
Fnan
sg12
F26.0
sg13
F0.0
sg14
I00
sg15
Fnan
sg16
Fnan
sg17
Fnan
sg18
F0.0
ssS'GOLD JOSEPH'
p109
(dp110
g3
F272880.0
sg4
Fnan
sg5
F2146973.0
sg6
F750000.0
sg7
Fnan
sg8
Fnan
sg9
F877611.0
sg10
Fnan
sg11
F436515.0
sg12
Fnan
sg13
Fnan
sg14
I00
sg15
F304805.0
sg16
Fnan
sg17
F441096.0
sg18
Fnan
ssS'BANNANTINE JAMES M'
p111
(dp112
g3
F477.0
sg4
F566.0
sg5
F916197.0
sg6
Fnan
sg7
F0.0
sg8
F0.06890459363957598
sg9
F5243487.0
sg10
F465.0
sg11
F4046157.0
sg12
F29.0
sg13
F0.0
sg14
I00
sg15
Fnan
sg16
F56301.0
sg17
F1757552.0
sg18
F39.0
ssS'DUNCAN JOHN H'
p113
(dp114
g3
Fnan
sg4
Fnan
sg5
F77492.0
sg6
Fnan
sg7
Fnan
sg8
Fnan
sg9
F371750.0
sg10
Fnan
sg11
F371750.0
sg12
Fnan
sg13
Fnan
sg14
I00
sg15
Fnan
sg16
Fnan
sg17
Fnan
sg18
Fnan
ssS'SHAPIRO RICHARD S'
p115
(dp116
g3
F269076.0
sg4
F15149.0
sg5
F1057548.0
sg6
F650000.0
sg7
F0.053497942386831275
sg8
F0.0048848108786058485
sg9
F987001.0
sg10
F4527.0
sg11
F607837.0
sg12
F1215.0
sg13
F65.0
sg14
I00
sg15
Fnan
sg16
F137767.0
sg17
F379164.0
sg18
F74.0
ssS'SHERRIFF JOHN R'
p117
(dp118
g3
F428780.0
sg4
F3187.0
sg5
F4335388.0
sg6
F1500000.0
sg7
F0.25
sg8
F0.008785691873235017
sg9
F3128982.0
sg10
F2103.0
sg11
F1835558.0
sg12
F92.0
sg13
F23.0
sg14
I00
sg15
F554422.0
sg16
Fnan
sg17
F1293424.0
sg18
F28.0
ssS'SHELBY REX'
p119
(dp120
g3
F211844.0
sg4
F225.0
sg5
F2003885.0
sg6
F200000.0
sg7
F0.358974358974359
sg8
F0.057777777777777775
sg9
F2493616.0
sg10
F91.0
sg11
F1624396.0
sg12
F39.0
sg13
F14.0
sg14
I01
sg15
Fnan
sg16
F22884.0
sg17
F869220.0
sg18
F13.0
ssS'LEMAISTRE CHARLES'
p121
(dp122
g3
Fnan
sg4
Fnan
sg5
F87492.0
sg6
Fnan
sg7
Fnan
sg8
Fnan
sg9
F412878.0
sg10
Fnan
sg11
F412878.0
sg12
Fnan
sg13
Fnan
sg14
I00
sg15
Fnan
sg16
Fnan
sg17
Fnan
sg18
Fnan
ssS'DEFFNER JOSEPH M'
p123
(dp124
g3
F206121.0
sg4
F714.0
sg5
F1208649.0
sg6
F600000.0
sg7
F0.05405405405405406
sg8
F0.16106442577030813
sg9
F159211.0
sg10
F552.0
sg11
F17378.0
sg12
F74.0
sg13
F4.0
sg14
I00
sg15
F335349.0
sg16
F41626.0
sg17
F141833.0
sg18
F115.0
ssS'KISHKILL JOSEPH G'
p125
(dp126
g3
F174246.0
sg4
Fnan
sg5
F704896.0
sg6
Fnan
sg7
Fnan
sg8
Fnan
sg9
F1034346.0
sg10
Fnan
sg11
Fnan
sg12
Fnan
sg13
Fnan
sg14
I00
sg15
Fnan
sg16
F116335.0
sg17
F1034346.0
sg18
Fnan
ssS'WHALLEY LAWRENCE G'
p127
(dp128
g3
F510364.0
sg4
F6019.0
sg5
F4677574.0
sg6
F3000000.0
sg7
F0.04316546762589928
sg8
F0.03090214321315833
sg9
F6079137.0
sg10
F3920.0
sg11
F3282960.0
sg12
F556.0
sg13
F24.0
sg14
I00
sg15
F808346.0
sg16
F57838.0
sg17
F2796177.0
sg18
F186.0
ssS'HAYSLETT RODERICK J'
p129
(dp130
g3
Fnan
sg4
F2649.0
sg5
Fnan
sg6
Fnan
sg7
F0.03581526861451461
sg8
F0.01321253303133258
sg9
F346663.0
sg10
F571.0
sg11
Fnan
sg12
F1061.0
sg13
F38.0
sg14
I00
sg15
Fnan
sg16
Fnan
sg17
F346663.0
sg18
F35.0
ssS'MCCONNELL MICHAEL S'
p131
(dp132
g3
F365038.0
sg4
F3329.0
sg5
F2101364.0
sg6
F1100000.0
sg7
F0.07075127644055434
sg8
F0.02763592670471613
sg9
F3101279.0
sg10
F2189.0
sg11
F1623010.0
sg12
F2742.0
sg13
F194.0
sg14
I00
sg15
F554422.0
sg16
F81364.0
sg17
F1478269.0
sg18
F92.0
ssS'DELAINEY DAVID W'
p133
(dp134
g3
F365163.0
sg4
F3093.0
sg5
F4747979.0
sg6
F3000000.0
sg7
F0.198435972629521
sg8
F0.02133850630455868
sg9
F3614261.0
sg10
F2097.0
sg11
F2291113.0
sg12
F3069.0
sg13
F609.0
sg14
I01
sg15
F1294981.0
sg16
F86174.0
sg17
F1323148.0
sg18
F66.0
ssS'SULLIVAN-SHAKLOVITZ COLLEEN'
p135
(dp136
g3
F162779.0
sg4
Fnan
sg5
F999356.0
sg6
F100000.0
sg7
Fnan
sg8
Fnan
sg9
F1362375.0
sg10
Fnan
sg11
F1362375.0
sg12
Fnan
sg13
Fnan
sg14
I00
sg15
F554422.0
sg16
Fnan
sg17
Fnan
sg18
Fnan
ssS'LINDHOLM TOD A'
p137
(dp138
g3
F236457.0
sg4
Fnan
sg5
F875889.0
sg6
F200000.0
sg7
Fnan
sg8
Fnan
sg9
F3064208.0
sg10
Fnan
sg11
F2549361.0
sg12
Fnan
sg13
Fnan
sg14
I00
sg15
F175000.0
sg16
F57727.0
sg17
F514847.0
sg18
Fnan
ssS'MEYER JEROME J'
p139
(dp140
g3
Fnan
sg4
Fnan
sg5
F2151.0
sg6
Fnan
sg7
Fnan
sg8
Fnan
sg9
Fnan
sg10
Fnan
sg11
Fnan
sg12
Fnan
sg13
Fnan
sg14
I00
sg15
Fnan
sg16
F2151.0
sg17
Fnan
sg18
Fnan
ssS'LAY KENNETH L'
p141
(dp142
g3
F1072321.0
sg4
F4273.0
sg5
F103559793.0
sg6
F7000000.0
sg7
F0.4444444444444444
sg8
F0.028785396676807865
sg9
F49110078.0
sg10
F2411.0
sg11
F34348384.0
sg12
F36.0
sg13
F16.0
sg14
I01
sg15
F3600000.0
sg16
F99832.0
sg17
F14761694.0
sg18
F123.0
ssS'BUTTS ROBERT H'
p143
(dp144
g3
F261516.0
sg4
Fnan
sg5
F1271582.0
sg6
F750000.0
sg7
Fnan
sg8
Fnan
sg9
F417619.0
sg10
Fnan
sg11
Fnan
sg12
Fnan
sg13
Fnan
sg14
I00
sg15
F175000.0
sg16
F9410.0
sg17
F417619.0
sg18
Fnan
ssS'OLSON CINDY K'
p145
(dp146
g3
F329078.0
sg4
F1184.0
sg5
F1321557.0
sg6
F750000.0
sg7
F0.28846153846153844
sg8
F0.016891891891891893
sg9
F2606763.0
sg10
F856.0
sg11
F1637034.0
sg12
F52.0
sg13
F15.0
sg14
I00
sg15
F100000.0
sg16
F63791.0
sg17
F969729.0
sg18
F20.0
ssS'MCDONALD REBECCA'
p147
(dp148
g3
Fnan
sg4
F894.0
sg5
Fnan
sg6
Fnan
sg7
F0.07692307692307693
sg8
F0.06040268456375839
sg9
F1691366.0
sg10
F720.0
sg11
F757301.0
sg12
F13.0
sg13
F1.0
sg14
I00
sg15
Fnan
sg16
Fnan
sg17
F934065.0
sg18
F54.0
ssS'CUMBERLAND MICHAEL S'
p149
(dp150
g3
F184899.0
sg4
Fnan
sg5
F807956.0
sg6
F325000.0
sg7
Fnan
sg8
Fnan
sg9
F207940.0
sg10
Fnan
sg11
Fnan
sg12
Fnan
sg13
Fnan
sg14
I00
sg15
F275000.0
sg16
F22344.0
sg17
F207940.0
sg18
Fnan
ssS'GAHN ROBERT S'
p151
(dp152
g3
F192008.0
sg4
Fnan
sg5
F900585.0
sg6
F509870.0
sg7
Fnan
sg8
Fnan
sg9
F318607.0
sg10
Fnan
sg11
F83237.0
sg12
Fnan
sg13
Fnan
sg14
I00
sg15
Fnan
sg16
F50080.0
sg17
F235370.0
sg18
Fnan
ssS'MCCLELLAN GEORGE'
p153
(dp154
g3
F263413.0
sg4
F1744.0
sg5
F1318763.0
sg6
F900000.0
sg7
F0.0
sg8
F0.02981651376146789
sg9
F947861.0
sg10
F1469.0
sg11
F506765.0
sg12
F49.0
sg13
F0.0
sg14
I00
sg15
Fnan
sg16
F228763.0
sg17
F441096.0
sg18
F52.0
ssS'HERMANN ROBERT J'
p155
(dp156
g3
F262663.0
sg4
Fnan
sg5
F1297461.0
sg6
F700000.0
sg7
Fnan
sg8
Fnan
sg9
F668132.0
sg10
Fnan
sg11
F187500.0
sg12
Fnan
sg13
Fnan
sg14
I00
sg15
F150000.0
sg16
F48357.0
sg17
F480632.0
sg18
Fnan
ssS'GATHMANN WILLIAM D'
p157
(dp158
g3
Fnan
sg4
Fnan
sg5
Fnan
sg6
Fnan
sg7
Fnan
sg8
Fnan
sg9
F1945360.0
sg10
Fnan
sg11
F1753766.0
sg12
Fnan
sg13
Fnan
sg14
I00
sg15
Fnan
sg16
Fnan
sg17
F264013.0
sg18
Fnan
ssS'HAEDICKE MARK E'
p159
(dp160
g3
F374125.0
sg4
F4009.0
sg5
F3859065.0
sg6
F1150000.0
sg7
F0.03142709943328181
sg8
F0.04489897730107259
sg9
F803094.0
sg10
F1847.0
sg11
F608750.0
sg12
F1941.0
sg13
F61.0
sg14
I00
sg15
F983346.0
sg16
F76169.0
sg17
F524169.0
sg18
F180.0
ssS'BOWEN JR RAYMOND M'
p161
(dp162
g3
F278601.0
sg4
F1858.0
sg5
F2669589.0
sg6
F1350000.0
sg7
F0.5555555555555556
sg8
F0.07534983853606028
sg9
F252055.0
sg10
F1593.0
sg11
Fnan
sg12
F27.0
sg13
F15.0
sg14
I01
sg15
F974293.0
sg16
F65907.0
sg17
F252055.0
sg18
F140.0
ssS'GILLIS JOHN'
p163
(dp164
g3
Fnan
sg4
Fnan
sg5
Fnan
sg6
Fnan
sg7
Fnan
sg8
Fnan
sg9
F85641.0
sg10
Fnan
sg11
F9803.0
sg12
Fnan
sg13
Fnan
sg14
I00
sg15
Fnan
sg16
Fnan
sg17
F75838.0
sg18
Fnan
ssS'FITZGERALD JAY L'
p165
(dp166
g3
F199157.0
sg4
F936.0
sg5
F1414857.0
sg6
F350000.0
sg7
F0.5
sg8
F0.0010683760683760685
sg9
F1621236.0
sg10
F723.0
sg11
F664461.0
sg12
F16.0
sg13
F8.0
sg14
I00
sg15
F556416.0
sg16
F23870.0
sg17
F956775.0
sg18
F1.0
ssS'MORAN MICHAEL P'
p167
(dp168
g3
Fnan
sg4
F672.0
sg5
Fnan
sg6
Fnan
sg7
F0.0
sg8
F0.0
sg9
F221141.0
sg10
F127.0
sg11
F59539.0
sg12
F19.0
sg13
F0.0
sg14
I00
sg15
Fnan
sg16
Fnan
sg17
F161602.0
sg18
F0.0
ssS'REDMOND BRIAN L'
p169
(dp170
g3
F96840.0
sg4
F1671.0
sg5
F111529.0
sg6
Fnan
sg7
F0.22171945701357465
sg8
F0.12208258527827648
sg9
F7890324.0
sg10
F1063.0
sg11
F7509039.0
sg12
F221.0
sg13
F49.0
sg14
I00
sg15
Fnan
sg16
F14689.0
sg17
F381285.0
sg18
F204.0
ssS'BAZELIDES PHILIP J'
p171
(dp172
g3
F80818.0
sg4
Fnan
sg5
F860136.0
sg6
Fnan
sg7
Fnan
sg8
Fnan
sg9
F1599641.0
sg10
Fnan
sg11
F1599641.0
sg12
Fnan
sg13
Fnan
sg14
I00
sg15
F93750.0
sg16
Fnan
sg17
Fnan
sg18
Fnan
ssS'BELDEN TIMOTHY N'
p173
(dp174
g3
F213999.0
sg4
F7991.0
sg5
F5501630.0
sg6
F5249999.0
sg7
F0.2231404958677686
sg8
F0.028532098610937303
sg9
F1110705.0
sg10
F5521.0
sg11
F953136.0
sg12
F484.0
sg13
F108.0
sg14
I01
sg15
Fnan
sg16
F17355.0
sg17
F157569.0
sg18
F228.0
ssS'DURAN WILLIAM D'
p175
(dp176
g3
F210692.0
sg4
F904.0
sg5
F2093263.0
sg6
F750000.0
sg7
F0.25
sg8
F0.1172566371681416
sg9
F1640910.0
sg10
F599.0
sg11
F1451869.0
sg12
F12.0
sg13
F3.0
sg14
I00
sg15
F1105218.0
sg16
F25785.0
sg17
F189041.0
sg18
F106.0
ssS'THORN TERENCE H'
p177
(dp178
g3
F222093.0
sg4
F266.0
sg5
F911453.0
sg6
Fnan
sg7
F0.0
sg8
F0.0
sg9
F4817796.0
sg10
F73.0
sg11
F4452476.0
sg12
F41.0
sg13
F0.0
sg14
I00
sg15
F200000.0
sg16
F46145.0
sg17
F365320.0
sg18
F0.0
ssS'FASTOW ANDREW S'
p179
(dp180
g3
F440698.0
sg4
Fnan
sg5
F2424083.0
sg6
F1300000.0
sg7
Fnan
sg8
Fnan
sg9
F1794412.0
sg10
Fnan
sg11
Fnan
sg12
Fnan
sg13
Fnan
sg14
I01
sg15
F1736055.0
sg16
F55921.0
sg17
F1794412.0
sg18
Fnan
ssS'FOY JOE'
p181
(dp182
g3
Fnan
sg4
F57.0
sg5
F181755.0
sg6
Fnan
sg7
F0.0
sg8
F0.0
sg9
F343434.0
sg10
F2.0
sg11
F343434.0
sg12
F13.0
sg13
F0.0
sg14
I00
sg15
Fnan
sg16
Fnan
sg17
Fnan
sg18
F0.0
ssS'CALGER CHRISTOPHER F'
p183
(dp184
g3
F240189.0
sg4
F2598.0
sg5
F1639297.0
sg6
F1250000.0
sg7
F0.1736111111111111
sg8
F0.07659738260200154
sg9
F126027.0
sg10
F2188.0
sg11
Fnan
sg12
F144.0
sg13
F25.0
sg14
I01
sg15
F375304.0
sg16
F35818.0
sg17
F126027.0
sg18
F199.0
ssS'RICE KENNETH D'
p185
(dp186
g3
F420636.0
sg4
F905.0
sg5
F505050.0
sg6
F1750000.0
sg7
F0.2222222222222222
sg8
F0.04640883977900553
sg9
F22542539.0
sg10
F864.0
sg11
F19794175.0
sg12
F18.0
sg13
F4.0
sg14
I01
sg15
F1617011.0
sg16
F46950.0
sg17
F2748364.0
sg18
F42.0
ssS'KAMINSKI WINCENTY J'
p187
(dp188
g3
F275101.0
sg4
F4607.0
sg5
F1086821.0
sg6
F400000.0
sg7
F0.011901447661469933
sg8
F0.008899500759713479
sg9
F976037.0
sg10
F583.0
sg11
F850010.0
sg12
F14368.0
sg13
F171.0
sg14
I00
sg15
F323466.0
sg16
F83585.0
sg17
F126027.0
sg18
F41.0
ssS'COX DAVID'
p189
(dp190
g3
F314288.0
sg4
F102.0
sg5
F1101393.0
sg6
F800000.0
sg7
F0.12121212121212122
sg8
F0.0
sg9
F495633.0
sg10
F71.0
sg11
F117551.0
sg12
F33.0
sg13
F4.0
sg14
I00
sg15
Fnan
sg16
F27861.0
sg17
F378082.0
sg18
F0.0
ssS'OVERDYKE JR JERE C'
p191
(dp192
g3
F94941.0
sg4
Fnan
sg5
F249787.0
sg6
Fnan
sg7
Fnan
sg8
Fnan
sg9
F7307594.0
sg10
Fnan
sg11
F5266578.0
sg12
Fnan
sg13
Fnan
sg14
I00
sg15
F135836.0
sg16
F18834.0
sg17
F2041016.0
sg18
Fnan
ssS'PEREIRA PAULO V. FERRAZ'
p193
(dp194
g3
Fnan
sg4
Fnan
sg5
F27942.0
sg6
Fnan
sg7
Fnan
sg8
Fnan
sg9
Fnan
sg10
Fnan
sg11
Fnan
sg12
Fnan
sg13
Fnan
sg14
I00
sg15
Fnan
sg16
F27942.0
sg17
Fnan
sg18
Fnan
ssS'STABLER FRANK'
p195
(dp196
g3
F239502.0
sg4
Fnan
sg5
F1112087.0
sg6
F500000.0
sg7
Fnan
sg8
Fnan
sg9
F511734.0
sg10
Fnan
sg11
Fnan
sg12
Fnan
sg13
Fnan
sg14
I00
sg15
Fnan
sg16
F16514.0
sg17
F511734.0
sg18
Fnan
ssS'SKILLING JEFFREY K'
p197
(dp198
g3
F1111258.0
sg4
F3627.0
sg5
F8682716.0
sg6
F5600000.0
sg7
F0.2777777777777778
sg8
F0.0242624758753791
sg9
F26093672.0
sg10
F2042.0
sg11
F19250000.0
sg12
F108.0
sg13
F30.0
sg14
I01
sg15
F1920000.0
sg16
F29336.0
sg17
F6843672.0
sg18
F88.0
ssS'BLAKE JR. NORMAN P'
p199
(dp200
g3
Fnan
sg4
Fnan
sg5
F1279.0
sg6
Fnan
sg7
Fnan
sg8
Fnan
sg9
Fnan
sg10
Fnan
sg11
Fnan
sg12
Fnan
sg13
Fnan
sg14
I00
sg15
Fnan
sg16
F1279.0
sg17
Fnan
sg18
Fnan
ssS'SHERRICK JEFFREY B'
p201
(dp202
g3
Fnan
sg4
F613.0
sg5
Fnan
sg6
Fnan
sg7
F0.72
sg8
F0.0636215334420881
sg9
F1832468.0
sg10
F583.0
sg11
F1426469.0
sg12
F25.0
sg13
F18.0
sg14
I00
sg15
Fnan
sg16
Fnan
sg17
F405999.0
sg18
F39.0
ssS'PRENTICE JAMES'
p203
(dp204
g3
Fnan
sg4
Fnan
sg5
F564348.0
sg6
Fnan
sg7
Fnan
sg8
Fnan
sg9
F1095040.0
sg10
Fnan
sg11
F886231.0
sg12
Fnan
sg13
Fnan
sg14
I00
sg15
Fnan
sg16
Fnan
sg17
F208809.0
sg18
Fnan
ssS'GRAY RODNEY'
p205
(dp206
g3
F6615.0
sg4
Fnan
sg5
F1146658.0
sg6
Fnan
sg7
Fnan
sg8
Fnan
sg9
Fnan
sg10
Fnan
sg11
Fnan
sg12
Fnan
sg13
Fnan
sg14
I00
sg15
F365625.0
sg16
Fnan
sg17
Fnan
sg18
Fnan
ssS'PICKERING MARK R'
p207
(dp208
g3
F655037.0
sg4
F898.0
sg5
F1386690.0
sg6
F300000.0
sg7
F0.0
sg8
F0.0077951002227171495
sg9
F28798.0
sg10
F728.0
sg11
F28798.0
sg12
F67.0
sg13
F0.0
sg14
I00
sg15
Fnan
sg16
F31653.0
sg17
Fnan
sg18
F7.0
ssS'NOLES JAMES L'
p209
(dp210
g3
Fnan
sg4
Fnan
sg5
F774401.0
sg6
Fnan
sg7
Fnan
sg8
Fnan
sg9
F368705.0
sg10
Fnan
sg11
Fnan
sg12
Fnan
sg13
Fnan
sg14
I00
sg15
Fnan
sg16
Fnan
sg17
F463261.0
sg18
Fnan
ssS'KEAN STEVEN J'
p211
(dp212
g3
F404338.0
sg4
F12754.0
sg5
F1747522.0
sg6
F1000000.0
sg7
F0.05725699067909454
sg8
F0.010976948408342482
sg9
F6153642.0
sg10
F3639.0
sg11
F2022048.0
sg12
F6759.0
sg13
F387.0
sg14
I00
sg15
F300000.0
sg16
F41953.0
sg17
F4131594.0
sg18
F140.0
ssS'FOWLER PEGGY'
p213
(dp214
g3
Fnan
sg4
F517.0
sg5
Fnan
sg6
Fnan
sg7
F0.0
sg8
F0.0
sg9
F1884748.0
sg10
F10.0
sg11
F1324578.0
sg12
F36.0
sg13
F0.0
sg14
I00
sg15
Fnan
sg16
Fnan
sg17
F560170.0
sg18
F0.0
ssS'WASAFF GEORGE'
p215
(dp216
g3
F259996.0
sg4
F400.0
sg5
F1034395.0
sg6
F325000.0
sg7
F0.23333333333333334
sg8
F0.055
sg9
F2056427.0
sg10
F337.0
sg11
F1668260.0
sg12
F30.0
sg13
F7.0
sg14
I00
sg15
F200000.0
sg16
Fnan
sg17
F388167.0
sg18
F22.0
ssS'WHITE JR THOMAS E'
p217
(dp218
g3
F317543.0
sg4
Fnan
sg5
F1934359.0
sg6
F450000.0
sg7
Fnan
sg8
Fnan
sg9
F15144123.0
sg10
Fnan
sg11
F1297049.0
sg12
Fnan
sg13
Fnan
sg14
I00
sg15
Fnan
sg16
F81353.0
sg17
F13847074.0
sg18
Fnan
ssS'CHRISTODOULOU DIOMEDES'
p219
(dp220
g3
Fnan
sg4
Fnan
sg5
Fnan
sg6
Fnan
sg7
Fnan
sg8
Fnan
sg9
F6077885.0
sg10
Fnan
sg11
F5127155.0
sg12
Fnan
sg13
Fnan
sg14
I00
sg15
Fnan
sg16
Fnan
sg17
F950730.0
sg18
Fnan
ssS'ALLEN PHILLIP K'
p221
(dp222
g3
F201955.0
sg4
F2902.0
sg5
F4484442.0
sg6
F4175000.0
sg7
F0.029612756264236904
sg8
F0.016195727084769126
sg9
F1729541.0
sg10
F1407.0
sg11
F1729541.0
sg12
F2195.0
sg13
F65.0
sg14
I00
sg15
F304805.0
sg16
F13868.0
sg17
F126027.0
sg18
F47.0
ssS'SHARP VICTORIA T'
p223
(dp224
g3
F248146.0
sg4
F3136.0
sg5
F1576511.0
sg6
F600000.0
sg7
F0.04411764705882353
sg8
F0.007653061224489796
sg9
F494136.0
sg10
F2477.0
sg11
F281073.0
sg12
F136.0
sg13
F6.0
sg14
I00
sg15
F422158.0
sg16
F116337.0
sg17
F213063.0
sg18
F24.0
ssS'JAEDICKE ROBERT'
p225
(dp226
g3
Fnan
sg4
Fnan
sg5
F83750.0
sg6
Fnan
sg7
Fnan
sg8
Fnan
sg9
F431750.0
sg10
Fnan
sg11
F431750.0
sg12
Fnan
sg13
Fnan
sg14
I00
sg15
Fnan
sg16
Fnan
sg17
F44093.0
sg18
Fnan
ssS'WINOKUR JR. HERBERT S'
p227
(dp228
g3
Fnan
sg4
Fnan
sg5
F84992.0
sg6
Fnan
sg7
Fnan
sg8
Fnan
sg9
Fnan
sg10
Fnan
sg11
Fnan
sg12
Fnan
sg13
Fnan
sg14
I00
sg15
Fnan
sg16
F1413.0
sg17
Fnan
sg18
Fnan
ssS'BROWN MICHAEL'
p229
(dp230
g3
Fnan
sg4
F1486.0
sg5
F49288.0
sg6
Fnan
sg7
F0.024390243902439025
sg8
F0.008748317631224764
sg9
Fnan
sg10
F761.0
sg11
Fnan
sg12
F41.0
sg13
F1.0
sg14
I00
sg15
Fnan
sg16
F49288.0
sg17
Fnan
sg18
F13.0
ssS'BADUM JAMES P'
p231
(dp232
g3
Fnan
sg4
Fnan
sg5
F182466.0
sg6
Fnan
sg7
Fnan
sg8
Fnan
sg9
F257817.0
sg10
Fnan
sg11
F257817.0
sg12
Fnan
sg13
Fnan
sg14
I00
sg15
Fnan
sg16
F3486.0
sg17
Fnan
sg18
Fnan
ssS'HUGHES JAMES A'
p233
(dp234
g3
Fnan
sg4
F719.0
sg5
Fnan
sg6
Fnan
sg7
F0.14705882352941177
sg8
F0.048678720445062586
sg9
F1118394.0
sg10
F589.0
sg11
F754966.0
sg12
F34.0
sg13
F5.0
sg14
I00
sg15
Fnan
sg16
Fnan
sg17
F363428.0
sg18
F35.0
ssS'REYNOLDS LAWRENCE'
p235
(dp236
g3
F76399.0
sg4
Fnan
sg5
F394475.0
sg6
F100000.0
sg7
Fnan
sg8
Fnan
sg9
F4221891.0
sg10
Fnan
sg11
F4160672.0
sg12
Fnan
sg13
Fnan
sg14
I00
sg15
F156250.0
sg16
F8409.0
sg17
F201483.0
sg18
Fnan
ssS'DIMICHELE RICHARD G'
p237
(dp238
g3
F262788.0
sg4
Fnan
sg5
F2368151.0
sg6
F1000000.0
sg7
Fnan
sg8
Fnan
sg9
F8317782.0
sg10
Fnan
sg11
F8191755.0
sg12
Fnan
sg13
Fnan
sg14
I00
sg15
F694862.0
sg16
F35812.0
sg17
F126027.0
sg18
Fnan
ssS'BHATNAGAR SANJAY'
p239
(dp240
g3
Fnan
sg4
F523.0
sg5
F15456290.0
sg6
Fnan
sg7
F0.034482758620689655
sg8
F0.0
sg9
Fnan
sg10
F463.0
sg11
F2604490.0
sg12
F29.0
sg13
F1.0
sg14
I00
sg15
Fnan
sg16
Fnan
sg17
F-2604490.0
sg18
F0.0
ssS'CARTER REBECCA C'
p241
(dp242
g3
F261809.0
sg4
F312.0
sg5
F477557.0
sg6
F300000.0
sg7
F0.4666666666666667
sg8
F0.09294871794871795
sg9
Fnan
sg10
F196.0
sg11
Fnan
sg12
F15.0
sg13
F7.0
sg14
I00
sg15
F75000.0
sg16
Fnan
sg17
F307301.0
sg18
F29.0
ssS'BUCHANAN HAROLD G'
p243
(dp244
g3
F248017.0
sg4
F1088.0
sg5
F1054637.0
sg6
F500000.0
sg7
F0.0
sg8
F0.0
sg9
F1014505.0
sg10
F23.0
sg11
F825464.0
sg12
F125.0
sg13
F0.0
sg14
I00
sg15
F304805.0
sg16
F600.0
sg17
F189041.0
sg18
F0.0
ssS'YEAP SOON'
p245
(dp246
g3
Fnan
sg4
Fnan
sg5
F55097.0
sg6
Fnan
sg7
Fnan
sg8
Fnan
sg9
F192758.0
sg10
Fnan
sg11
F192758.0
sg12
Fnan
sg13
Fnan
sg14
I00
sg15
Fnan
sg16
F55097.0
sg17
Fnan
sg18
Fnan
ssS'MURRAY JULIA H'
p247
(dp248
g3
F229284.0
sg4
F2192.0
sg5
F812194.0
sg6
F400000.0
sg7
F0.044444444444444446
sg8
F0.005018248175182482
sg9
F597461.0
sg10
F395.0
sg11
F400478.0
sg12
F45.0
sg13
F2.0
sg14
I00
sg15
F125000.0
sg16
F57580.0
sg17
F196983.0
sg18
F11.0
ssS'GARLAND C KEVIN'
p249
(dp250
g3
F231946.0
sg4
F209.0
sg5
F1566469.0
sg6
F850000.0
sg7
F0.6136363636363636
sg8
F0.04784688995215311
sg9
F896153.0
sg10
F178.0
sg11
F636246.0
sg12
F44.0
sg13
F27.0
sg14
I00
sg15
F375304.0
sg16
F48405.0
sg17
F259907.0
sg18
F10.0
ssS'DODSON KEITH'
p251
(dp252
g3
F221003.0
sg4
F176.0
sg5
F319941.0
sg6
F70000.0
sg7
F0.21428571428571427
sg8
F0.056818181818181816
sg9
Fnan
sg10
F114.0
sg11
Fnan
sg12
F14.0
sg13
F3.0
sg14
I00
sg15
Fnan
sg16
F28164.0
sg17
Fnan
sg18
F10.0
ssS'YEAGER F SCOTT'
p253
(dp254
g3
F158403.0
sg4
Fnan
sg5
F360300.0
sg6
Fnan
sg7
Fnan
sg8
Fnan
sg9
F11884758.0
sg10
Fnan
sg11
F8308552.0
sg12
Fnan
sg13
Fnan
sg14
I01
sg15
Fnan
sg16
F53947.0
sg17
F3576206.0
sg18
Fnan
ssS'HIRKO JOSEPH'
p255
(dp256
g3
Fnan
sg4
Fnan
sg5
F91093.0
sg6
Fnan
sg7
Fnan
sg8
Fnan
sg9
F30766064.0
sg10
Fnan
sg11
F30766064.0
sg12
Fnan
sg13
Fnan
sg14
I01
sg15
Fnan
sg16
F77978.0
sg17
Fnan
sg18
Fnan
ssS'DIETRICH JANET R'
p257
(dp258
g3
F250100.0
sg4
F2572.0
sg5
F1410464.0
sg6
F600000.0
sg7
F0.2222222222222222
sg8
F0.11858475894245724
sg9
F1865087.0
sg10
F1902.0
sg11
F1550019.0
sg12
F63.0
sg13
F14.0
sg14
I00
sg15
F556416.0
sg16
F3475.0
sg17
F315068.0
sg18
F305.0
ssS'DERRICK JR. JAMES V'
p259
(dp260
g3
F492375.0
sg4
F2181.0
sg5
F550981.0
sg6
F800000.0
sg7
F0.022002200220022004
sg8
F0.029344337459880788
sg9
F8831913.0
sg10
F1401.0
sg11
F8831913.0
sg12
F909.0
sg13
F20.0
sg14
I00
sg15
F484000.0
sg16
F51124.0
sg17
F1787380.0
sg18
F64.0
ssS'FREVERT MARK A'
p261
(dp262
g3
F1060932.0
sg4
F3275.0
sg5
F17252530.0
sg6
F2000000.0
sg7
F0.2857142857142857
sg8
F0.07389312977099237
sg9
F14622185.0
sg10
F2979.0
sg11
F10433518.0
sg12
F21.0
sg13
F6.0
sg14
I00
sg15
F1617011.0
sg16
F86987.0
sg17
F4188667.0
sg18
F242.0
ssS'PAI LOU L'
p263
(dp264
g3
F261879.0
sg4
Fnan
sg5
F3123383.0
sg6
F1000000.0
sg7
Fnan
sg8
Fnan
sg9
F23817930.0
sg10
Fnan
sg11
F15364167.0
sg12
Fnan
sg13
Fnan
sg14
I00
sg15
Fnan
sg16
F32047.0
sg17
F8453763.0
sg18
Fnan
ssS'BAY FRANKLIN R'
p265
(dp266
g3
F239671.0
sg4
Fnan
sg5
F827696.0
sg6
F400000.0
sg7
Fnan
sg8
Fnan
sg9
F63014.0
sg10
Fnan
sg11
Fnan
sg12
Fnan
sg13
Fnan
sg14
I00
sg15
Fnan
sg16
F129142.0
sg17
F145796.0
sg18
Fnan
ssS'MCCARTY DANNY J'
p267
(dp268
g3
Fnan
sg4
F1433.0
sg5
Fnan
sg6
Fnan
sg7
F0.009302325581395349
sg8
F0.017445917655268667
sg9
F758931.0
sg10
F508.0
sg11
F664375.0
sg12
F215.0
sg13
F2.0
sg14
I00
sg15
Fnan
sg16
Fnan
sg17
F94556.0
sg18
F25.0
ssS'FUGH JOHN L'
p269
(dp270
g3
Fnan
sg4
Fnan
sg5
F50591.0
sg6
Fnan
sg7
Fnan
sg8
Fnan
sg9
F176378.0
sg10
Fnan
sg11
F176378.0
sg12
Fnan
sg13
Fnan
sg14
I00
sg15
Fnan
sg16
Fnan
sg17
Fnan
sg18
Fnan
ssS'FALLON JAMES B'
p271
(dp272
g3
F304588.0
sg4
F1755.0
sg5
F3676340.0
sg6
F2500000.0
sg7
F0.49333333333333335
sg8
F0.023931623931623933
sg9
F2332399.0
sg10
F1604.0
sg11
F940257.0
sg12
F75.0
sg13
F37.0
sg14
I00
sg15
F374347.0
sg16
F95924.0
sg17
F1392142.0
sg18
F42.0
ssS'KOENIG MARK E'
p273
(dp274
g3
F309946.0
sg4
F2374.0
sg5
F1587421.0
sg6
F700000.0
sg7
F0.2459016393442623
sg8
F0.02232518955349621
sg9
F1920055.0
sg10
F2271.0
sg11
F671737.0
sg12
F61.0
sg13
F15.0
sg14
I01
sg15
F300000.0
sg16
F127017.0
sg17
F1248318.0
sg18
F53.0
ssS'SAVAGE FRANK'
p275
(dp276
g3
Fnan
sg4
Fnan
sg5
F3750.0
sg6
Fnan
sg7
Fnan
sg8
Fnan
sg9
Fnan
sg10
Fnan
sg11
Fnan
sg12
Fnan
sg13
Fnan
sg14
I00
sg15
Fnan
sg16
Fnan
sg17
Fnan
sg18
Fnan
ssS'IZZO LAWRENCE L'
p277
(dp278
g3
F85274.0
sg4
F496.0
sg5
F1979596.0
sg6
Fnan
sg7
F0.2631578947368421
sg8
F0.056451612903225805
sg9
F5819980.0
sg10
F437.0
sg11
F2165172.0
sg12
F19.0
sg13
F5.0
sg14
I00
sg15
F312500.0
sg16
F28093.0
sg17
F3654808.0
sg18
F28.0
ssS'TILNEY ELIZABETH A'
p279
(dp280
g3
F247338.0
sg4
F460.0
sg5
F399393.0
sg6
F300000.0
sg7
F0.5789473684210527
sg8
F0.021739130434782608
sg9
F1168042.0
sg10
F379.0
sg11
F591250.0
sg12
F19.0
sg13
F11.0
sg14
I00
sg15
F275000.0
sg16
Fnan
sg17
F576792.0
sg18
F10.0
ssS'MARTIN AMANDA K'
p281
(dp282
g3
F349487.0
sg4
F1522.0
sg5
F8407016.0
sg6
Fnan
sg7
F0.0
sg8
F0.005256241787122208
sg9
F2070306.0
sg10
F477.0
sg11
F2070306.0
sg12
F230.0
sg13
F0.0
sg14
I00
sg15
F5145434.0
sg16
F8211.0
sg17
Fnan
sg18
F8.0
ssS'BUY RICHARD B'
p283
(dp284
g3
F330546.0
sg4
F3523.0
sg5
F2355702.0
sg6
F900000.0
sg7
F0.06742640075973409
sg8
F0.04428044280442804
sg9
F3444470.0
sg10
F2333.0
sg11
F2542813.0
sg12
F1053.0
sg13
F71.0
sg14
I00
sg15
F769862.0
sg16
Fnan
sg17
F901657.0
sg18
F156.0
ssS'CAUSEY RICHARD A'
p285
(dp286
g3
F415189.0
sg4
F1892.0
sg5
F1868758.0
sg6
F1000000.0
sg7
F0.24489795918367346
sg8
F0.0306553911205074
sg9
F2502063.0
sg10
F1585.0
sg11
Fnan
sg12
F49.0
sg13
F12.0
sg14
I01
sg15
F350000.0
sg16
F30674.0
sg17
F2502063.0
sg18
F58.0
ssS'TAYLOR MITCHELL S'
p287
(dp288
g3
F265214.0
sg4
F533.0
sg5
F1092663.0
sg6
F600000.0
sg7
F0.0
sg8
F0.0
sg9
F3745048.0
sg10
F300.0
sg11
F3181250.0
sg12
F29.0
sg13
F0.0
sg14
I00
sg15
Fnan
sg16
Fnan
sg17
F563798.0
sg18
F0.0
ssS'DONAHUE JR JEFFREY M'
p289
(dp290
g3
F278601.0
sg4
F865.0
sg5
F875760.0
sg6
F800000.0
sg7
F0.5
sg8
F0.21734104046242775
sg9
F1080988.0
sg10
F772.0
sg11
F765920.0
sg12
F22.0
sg13
F11.0
sg14
I00
sg15
Fnan
sg16
F96268.0
sg17
F315068.0
sg18
F188.0
ssS'GLISAN JR BEN F'
p291
(dp292
g3
F274975.0
sg4
F873.0
sg5
F1272284.0
sg6
F600000.0
sg7
F0.375
sg8
F0.05956471935853379
sg9
F778546.0
sg10
F874.0
sg11
F384728.0
sg12
F16.0
sg13
F6.0
sg14
I01
sg15
F71023.0
sg16
F125978.0
sg17
F393818.0
sg18
F52.0
ss.