ccopy_reg
_reconstructor
p0
(csklearn.pipeline
Pipeline
p1
c__builtin__
object
p2
Ntp3
Rp4
(dp5
S'_sklearn_version'
p6
S'0.18.1'
p7
sS'steps'
p8
(lp9
(S'impute'
p10
g0
(csklearn.preprocessing.imputation
Imputer
p11
g2
Ntp12
Rp13
(dp14
S'verbose'
p15
I0
sS'missing_values'
p16
S'NaN'
p17
sS'strategy'
p18
S'median'
p19
sg6
g7
sS'statistics_'
p20
cnumpy.core.multiarray
_reconstruct
p21
(cnumpy
ndarray
p22
(I0
tp23
S'b'
p24
tp25
Rp26
(I1
(L3L
tp27
cnumpy
dtype
p28
(S'f8'
p29
I0
I1
tp30
Rp31
(I3
S'<'
p32
NNNI-1
I-1
I0
tp33
bI00
S'\x00\x00\x00\x00%\xc45A\x00\x00\x00\x00\xba\x101A\x00\x00\x00\x00\x0e>(A'
p34
tp35
bsS'copy'
p36
I01
sS'axis'
p37
I0
sbtp38
a(S'classify'
p39
g0
(csklearn.naive_bayes
GaussianNB
p40
g2
Ntp41
Rp42
(dp43
S'class_prior_'
p44
g21
(g22
(I0
tp45
g24
tp46
Rp47
(I1
(L2L
tp48
g31
I00
S'333333\xc3?333333\xeb?'
p49
tp50
bsS'priors'
p51
(lp52
F0.15
aF0.85
asS'classes_'
p53
g21
(g22
(I0
tp54
g24
tp55
Rp56
(I1
(L2L
tp57
g31
I00
S'\x00\x00\x00\x00\x00\x00\x00\x00\x00\x00\x00\x00\x00\x00\xf0?'
p58
tp59
bsS'theta_'
p60
g21
(g22
(I0
tp61
g24
tp62
Rp63
(I1
(L2L
L3L
tp64
g31
I00
S'UUU\x95+\x9b<A\xed%\xb4\x97o\xbeAA\xc7q\x1c\xc7\x18\x19,A\x00\x00\x00@vE_A\x00\x00\x00\xa2\xf5\x01cA\x00\x00\x00\xd0\x06\xa6=A'
p65
tp66
bsS'sigma_'
p67
g21
(g22
(I0
tp68
g24
tp69
Rp70
(I1
(L2L
L3L
tp71
g31
I00
S'\x94rQQ\x1d\n\x92B\xc1\xd4YR\xb4\xda\xa4B\xba\xcc\xeb\x85\xfbRgB3\xb7\xe2\xab\xdds\xdbB]\x13|\x9f\xf5y\xe6B\x99&Q[\xe6\xb5\x8cB'
p72
tp73
bsg6
g7
sS'class_count_'
p74
g21
(g22
(I0
tp75
g24
tp76
Rp77
(I1
(L2L
tp78
g31
I00
S'\x00\x00\x00\x00\x00\x00[@\x00\x00\x00\x00\x00\x000@'
p79
tp80
bsbtp81
asb.